target datalayout = "e-m:e-p270:32:32-p271:32:32-p272:64:64-i64:64-i128:128-f80:128-n8:16:32:64-S128"
target triple = "x86_64-pc-linux-gnu"

; Function Attrs: mustprogress nounwind uwtable
define internal void @_ZN5ceres8internalL10MTV_mat4x1EiPKdiS2_Pdi(i32 noundef %0, ptr noundef %1, i32 noundef %2, ptr noundef %3, ptr noundef %4, i32 noundef %5) #1 {
  %7 = alloca i32, align 4
  %8 = alloca ptr, align 8
  %9 = alloca i32, align 4
  %10 = alloca ptr, align 8
  %11 = alloca ptr, align 8
  %12 = alloca i32, align 4
  %13 = alloca [4 x double], align 16
  %14 = alloca ptr, align 8
  %15 = alloca ptr, align 8
  %16 = alloca i32, align 4
  %17 = alloca i32, align 4
  %18 = alloca i32, align 4
  %19 = alloca double, align 8
  %20 = alloca i32, align 4
  %21 = alloca i32, align 4
  store i32 %0, ptr %7, align 4
  store ptr %1, ptr %8, align 8
  store i32 %2, ptr %9, align 4
  store ptr %3, ptr %10, align 8
  store ptr %4, ptr %11, align 8
  store i32 %5, ptr %12, align 4
  call void @llvm.memset.p0.i64(ptr align 16 %13, i8 0, i64 32, i1 false)
  %22 = load ptr, ptr %8, align 8
  store ptr %22, ptr %14, align 8
  %23 = load ptr, ptr %10, align 8
  store ptr %23, ptr %15, align 8
  store i32 4, ptr %16, align 4
  %24 = load i32, ptr %7, align 4
  %25 = and i32 %24, 3
  store i32 %25, ptr %17, align 4
  %26 = load i32, ptr %7, align 4
  %27 = load i32, ptr %17, align 4
  %28 = sub nsw i32 %26, %27
  store i32 %28, ptr %18, align 4
  store double 0.000000e+00, ptr %19, align 8
  store i32 0, ptr %20, align 4
  br label %29

29:                                               ; preds = %178, %6
  %30 = load i32, ptr %20, align 4
  %31 = load i32, ptr %18, align 4
  %32 = icmp slt i32 %30, %31
  br i1 %32, label %33, label %181

33:                                               ; preds = %29
  %34 = load ptr, ptr %15, align 8
  %35 = load double, ptr %34, align 8
  store double %35, ptr %19, align 8
  %36 = load ptr, ptr %14, align 8
  %37 = getelementptr inbounds double, ptr %36, i64 0
  %38 = load double, ptr %37, align 8
  %39 = load double, ptr %19, align 8
  %40 = getelementptr inbounds [4 x double], ptr %13, i64 0, i64 0
  %41 = load double, ptr %40, align 16
  %42 = call double @llvm.fmuladd.f64(double %38, double %39, double %41)
  store double %42, ptr %40, align 16
  %43 = load ptr, ptr %14, align 8
  %44 = getelementptr inbounds double, ptr %43, i64 1
  %45 = load double, ptr %44, align 8
  %46 = load double, ptr %19, align 8
  %47 = getelementptr inbounds [4 x double], ptr %13, i64 0, i64 1
  %48 = load double, ptr %47, align 8
  %49 = call double @llvm.fmuladd.f64(double %45, double %46, double %48)
  store double %49, ptr %47, align 8
  %50 = load ptr, ptr %14, align 8
  %51 = getelementptr inbounds double, ptr %50, i64 2
  %52 = load double, ptr %51, align 8
  %53 = load double, ptr %19, align 8
  %54 = getelementptr inbounds [4 x double], ptr %13, i64 0, i64 2
  %55 = load double, ptr %54, align 16
  %56 = call double @llvm.fmuladd.f64(double %52, double %53, double %55)
  store double %56, ptr %54, align 16
  %57 = load ptr, ptr %14, align 8
  %58 = getelementptr inbounds double, ptr %57, i64 3
  %59 = load double, ptr %58, align 8
  %60 = load double, ptr %19, align 8
  %61 = getelementptr inbounds [4 x double], ptr %13, i64 0, i64 3
  %62 = load double, ptr %61, align 8
  %63 = call double @llvm.fmuladd.f64(double %59, double %60, double %62)
  store double %63, ptr %61, align 8
  %64 = load i32, ptr %9, align 4
  %65 = load ptr, ptr %14, align 8
  %66 = sext i32 %64 to i64
  %67 = getelementptr inbounds double, ptr %65, i64 %66
  store ptr %67, ptr %14, align 8
  %68 = load ptr, ptr %15, align 8
  %69 = getelementptr inbounds double, ptr %68, i32 1
  store ptr %69, ptr %15, align 8
  %70 = load ptr, ptr %15, align 8
  %71 = load double, ptr %70, align 8
  store double %71, ptr %19, align 8
  %72 = load ptr, ptr %14, align 8
  %73 = getelementptr inbounds double, ptr %72, i64 0
  %74 = load double, ptr %73, align 8
  %75 = load double, ptr %19, align 8
  %76 = getelementptr inbounds [4 x double], ptr %13, i64 0, i64 0
  %77 = load double, ptr %76, align 16
  %78 = call double @llvm.fmuladd.f64(double %74, double %75, double %77)
  store double %78, ptr %76, align 16
  %79 = load ptr, ptr %14, align 8
  %80 = getelementptr inbounds double, ptr %79, i64 1
  %81 = load double, ptr %80, align 8
  %82 = load double, ptr %19, align 8
  %83 = getelementptr inbounds [4 x double], ptr %13, i64 0, i64 1
  %84 = load double, ptr %83, align 8
  %85 = call double @llvm.fmuladd.f64(double %81, double %82, double %84)
  store double %85, ptr %83, align 8
  %86 = load ptr, ptr %14, align 8
  %87 = getelementptr inbounds double, ptr %86, i64 2
  %88 = load double, ptr %87, align 8
  %89 = load double, ptr %19, align 8
  %90 = getelementptr inbounds [4 x double], ptr %13, i64 0, i64 2
  %91 = load double, ptr %90, align 16
  %92 = call double @llvm.fmuladd.f64(double %88, double %89, double %91)
  store double %92, ptr %90, align 16
  %93 = load ptr, ptr %14, align 8
  %94 = getelementptr inbounds double, ptr %93, i64 3
  %95 = load double, ptr %94, align 8
  %96 = load double, ptr %19, align 8
  %97 = getelementptr inbounds [4 x double], ptr %13, i64 0, i64 3
  %98 = load double, ptr %97, align 8
  %99 = call double @llvm.fmuladd.f64(double %95, double %96, double %98)
  store double %99, ptr %97, align 8
  %100 = load i32, ptr %9, align 4
  %101 = load ptr, ptr %14, align 8
  %102 = sext i32 %100 to i64
  %103 = getelementptr inbounds double, ptr %101, i64 %102
  store ptr %103, ptr %14, align 8
  %104 = load ptr, ptr %15, align 8
  %105 = getelementptr inbounds double, ptr %104, i32 1
  store ptr %105, ptr %15, align 8
  %106 = load ptr, ptr %15, align 8
  %107 = load double, ptr %106, align 8
  store double %107, ptr %19, align 8
  %108 = load ptr, ptr %14, align 8
  %109 = getelementptr inbounds double, ptr %108, i64 0
  %110 = load double, ptr %109, align 8
  %111 = load double, ptr %19, align 8
  %112 = getelementptr inbounds [4 x double], ptr %13, i64 0, i64 0
  %113 = load double, ptr %112, align 16
  %114 = call double @llvm.fmuladd.f64(double %110, double %111, double %113)
  store double %114, ptr %112, align 16
  %115 = load ptr, ptr %14, align 8
  %116 = getelementptr inbounds double, ptr %115, i64 1
  %117 = load double, ptr %116, align 8
  %118 = load double, ptr %19, align 8
  %119 = getelementptr inbounds [4 x double], ptr %13, i64 0, i64 1
  %120 = load double, ptr %119, align 8
  %121 = call double @llvm.fmuladd.f64(double %117, double %118, double %120)
  store double %121, ptr %119, align 8
  %122 = load ptr, ptr %14, align 8
  %123 = getelementptr inbounds double, ptr %122, i64 2
  %124 = load double, ptr %123, align 8
  %125 = load double, ptr %19, align 8
  %126 = getelementptr inbounds [4 x double], ptr %13, i64 0, i64 2
  %127 = load double, ptr %126, align 16
  %128 = call double @llvm.fmuladd.f64(double %124, double %125, double %127)
  store double %128, ptr %126, align 16
  %129 = load ptr, ptr %14, align 8
  %130 = getelementptr inbounds double, ptr %129, i64 3
  %131 = load double, ptr %130, align 8
  %132 = load double, ptr %19, align 8
  %133 = getelementptr inbounds [4 x double], ptr %13, i64 0, i64 3
  %134 = load double, ptr %133, align 8
  %135 = call double @llvm.fmuladd.f64(double %131, double %132, double %134)
  store double %135, ptr %133, align 8
  %136 = load i32, ptr %9, align 4
  %137 = load ptr, ptr %14, align 8
  %138 = sext i32 %136 to i64
  %139 = getelementptr inbounds double, ptr %137, i64 %138
  store ptr %139, ptr %14, align 8
  %140 = load ptr, ptr %15, align 8
  %141 = getelementptr inbounds double, ptr %140, i32 1
  store ptr %141, ptr %15, align 8
  %142 = load ptr, ptr %15, align 8
  %143 = load double, ptr %142, align 8
  store double %143, ptr %19, align 8
  %144 = load ptr, ptr %14, align 8
  %145 = getelementptr inbounds double, ptr %144, i64 0
  %146 = load double, ptr %145, align 8
  %147 = load double, ptr %19, align 8
  %148 = getelementptr inbounds [4 x double], ptr %13, i64 0, i64 0
  %149 = load double, ptr %148, align 16
  %150 = call double @llvm.fmuladd.f64(double %146, double %147, double %149)
  store double %150, ptr %148, align 16
  %151 = load ptr, ptr %14, align 8
  %152 = getelementptr inbounds double, ptr %151, i64 1
  %153 = load double, ptr %152, align 8
  %154 = load double, ptr %19, align 8
  %155 = getelementptr inbounds [4 x double], ptr %13, i64 0, i64 1
  %156 = load double, ptr %155, align 8
  %157 = call double @llvm.fmuladd.f64(double %153, double %154, double %156)
  store double %157, ptr %155, align 8
  %158 = load ptr, ptr %14, align 8
  %159 = getelementptr inbounds double, ptr %158, i64 2
  %160 = load double, ptr %159, align 8
  %161 = load double, ptr %19, align 8
  %162 = getelementptr inbounds [4 x double], ptr %13, i64 0, i64 2
  %163 = load double, ptr %162, align 16
  %164 = call double @llvm.fmuladd.f64(double %160, double %161, double %163)
  store double %164, ptr %162, align 16
  %165 = load ptr, ptr %14, align 8
  %166 = getelementptr inbounds double, ptr %165, i64 3
  %167 = load double, ptr %166, align 8
  %168 = load double, ptr %19, align 8
  %169 = getelementptr inbounds [4 x double], ptr %13, i64 0, i64 3
  %170 = load double, ptr %169, align 8
  %171 = call double @llvm.fmuladd.f64(double %167, double %168, double %170)
  store double %171, ptr %169, align 8
  %172 = load i32, ptr %9, align 4
  %173 = load ptr, ptr %14, align 8
  %174 = sext i32 %172 to i64
  %175 = getelementptr inbounds double, ptr %173, i64 %174
  store ptr %175, ptr %14, align 8
  %176 = load ptr, ptr %15, align 8
  %177 = getelementptr inbounds double, ptr %176, i32 1
  store ptr %177, ptr %15, align 8
  br label %178

178:                                              ; preds = %33
  %179 = load i32, ptr %20, align 4
  %180 = add nsw i32 %179, 4
  store i32 %180, ptr %20, align 4
  br label %29, !llvm.loop !39

181:                                              ; preds = %29
  %182 = load i32, ptr %18, align 4
  store i32 %182, ptr %21, align 4
  br label %183

183:                                              ; preds = %224, %181
  %184 = load i32, ptr %21, align 4
  %185 = load i32, ptr %7, align 4
  %186 = icmp slt i32 %184, %185
  br i1 %186, label %187, label %227

187:                                              ; preds = %183
  %188 = load ptr, ptr %15, align 8
  %189 = load double, ptr %188, align 8
  store double %189, ptr %19, align 8
  %190 = load ptr, ptr %14, align 8
  %191 = getelementptr inbounds double, ptr %190, i64 0
  %192 = load double, ptr %191, align 8
  %193 = load double, ptr %19, align 8
  %194 = getelementptr inbounds [4 x double], ptr %13, i64 0, i64 0
  %195 = load double, ptr %194, align 16
  %196 = call double @llvm.fmuladd.f64(double %192, double %193, double %195)
  store double %196, ptr %194, align 16
  %197 = load ptr, ptr %14, align 8
  %198 = getelementptr inbounds double, ptr %197, i64 1
  %199 = load double, ptr %198, align 8
  %200 = load double, ptr %19, align 8
  %201 = getelementptr inbounds [4 x double], ptr %13, i64 0, i64 1
  %202 = load double, ptr %201, align 8
  %203 = call double @llvm.fmuladd.f64(double %199, double %200, double %202)
  store double %203, ptr %201, align 8
  %204 = load ptr, ptr %14, align 8
  %205 = getelementptr inbounds double, ptr %204, i64 2
  %206 = load double, ptr %205, align 8
  %207 = load double, ptr %19, align 8
  %208 = getelementptr inbounds [4 x double], ptr %13, i64 0, i64 2
  %209 = load double, ptr %208, align 16
  %210 = call double @llvm.fmuladd.f64(double %206, double %207, double %209)
  store double %210, ptr %208, align 16
  %211 = load ptr, ptr %14, align 8
  %212 = getelementptr inbounds double, ptr %211, i64 3
  %213 = load double, ptr %212, align 8
  %214 = load double, ptr %19, align 8
  %215 = getelementptr inbounds [4 x double], ptr %13, i64 0, i64 3
  %216 = load double, ptr %215, align 8
  %217 = call double @llvm.fmuladd.f64(double %213, double %214, double %216)
  store double %217, ptr %215, align 8
  %218 = load i32, ptr %9, align 4
  %219 = load ptr, ptr %14, align 8
  %220 = sext i32 %218 to i64
  %221 = getelementptr inbounds double, ptr %219, i64 %220
  store ptr %221, ptr %14, align 8
  %222 = load ptr, ptr %15, align 8
  %223 = getelementptr inbounds double, ptr %222, i32 1
  store ptr %223, ptr %15, align 8
  br label %224

224:                                              ; preds = %187
  %225 = load i32, ptr %21, align 4
  %226 = add nsw i32 %225, 1
  store i32 %226, ptr %21, align 4
  br label %183, !llvm.loop !40

227:                                              ; preds = %183
  %228 = load i32, ptr %12, align 4
  %229 = icmp sgt i32 %228, 0
  br i1 %229, label %230, label %255

230:                                              ; preds = %227
  %231 = getelementptr inbounds [4 x double], ptr %13, i64 0, i64 0
  %232 = load double, ptr %231, align 16
  %233 = load ptr, ptr %11, align 8
  %234 = getelementptr inbounds double, ptr %233, i64 0
  %235 = load double, ptr %234, align 8
  %236 = fadd double %235, %232
  store double %236, ptr %234, align 8
  %237 = getelementptr inbounds [4 x double], ptr %13, i64 0, i64 1
  %238 = load double, ptr %237, align 8
  %239 = load ptr, ptr %11, align 8
  %240 = getelementptr inbounds double, ptr %239, i64 1
  %241 = load double, ptr %240, align 8
  %242 = fadd double %241, %238
  store double %242, ptr %240, align 8
  %243 = getelementptr inbounds [4 x double], ptr %13, i64 0, i64 2
  %244 = load double, ptr %243, align 16
  %245 = load ptr, ptr %11, align 8
  %246 = getelementptr inbounds double, ptr %245, i64 2
  %247 = load double, ptr %246, align 8
  %248 = fadd double %247, %244
  store double %248, ptr %246, align 8
  %249 = getelementptr inbounds [4 x double], ptr %13, i64 0, i64 3
  %250 = load double, ptr %249, align 8
  %251 = load ptr, ptr %11, align 8
  %252 = getelementptr inbounds double, ptr %251, i64 3
  %253 = load double, ptr %252, align 8
  %254 = fadd double %253, %250
  store double %254, ptr %252, align 8
  br label %301

255:                                              ; preds = %227
  %256 = load i32, ptr %12, align 4
  %257 = icmp slt i32 %256, 0
  br i1 %257, label %258, label %283

258:                                              ; preds = %255
  %259 = getelementptr inbounds [4 x double], ptr %13, i64 0, i64 0
  %260 = load double, ptr %259, align 16
  %261 = load ptr, ptr %11, align 8
  %262 = getelementptr inbounds double, ptr %261, i64 0
  %263 = load double, ptr %262, align 8
  %264 = fsub double %263, %260
  store double %264, ptr %262, align 8
  %265 = getelementptr inbounds [4 x double], ptr %13, i64 0, i64 1
  %266 = load double, ptr %265, align 8
  %267 = load ptr, ptr %11, align 8
  %268 = getelementptr inbounds double, ptr %267, i64 1
  %269 = load double, ptr %268, align 8
  %270 = fsub double %269, %266
  store double %270, ptr %268, align 8
  %271 = getelementptr inbounds [4 x double], ptr %13, i64 0, i64 2
  %272 = load double, ptr %271, align 16
  %273 = load ptr, ptr %11, align 8
  %274 = getelementptr inbounds double, ptr %273, i64 2
  %275 = load double, ptr %274, align 8
  %276 = fsub double %275, %272
  store double %276, ptr %274, align 8
  %277 = getelementptr inbounds [4 x double], ptr %13, i64 0, i64 3
  %278 = load double, ptr %277, align 8
  %279 = load ptr, ptr %11, align 8
  %280 = getelementptr inbounds double, ptr %279, i64 3
  %281 = load double, ptr %280, align 8
  %282 = fsub double %281, %278
  store double %282, ptr %280, align 8
  br label %300

283:                                              ; preds = %255
  %284 = getelementptr inbounds [4 x double], ptr %13, i64 0, i64 0
  %285 = load double, ptr %284, align 16
  %286 = load ptr, ptr %11, align 8
  %287 = getelementptr inbounds double, ptr %286, i64 0
  store double %285, ptr %287, align 8
  %288 = getelementptr inbounds [4 x double], ptr %13, i64 0, i64 1
  %289 = load double, ptr %288, align 8
  %290 = load ptr, ptr %11, align 8
  %291 = getelementptr inbounds double, ptr %290, i64 1
  store double %289, ptr %291, align 8
  %292 = getelementptr inbounds [4 x double], ptr %13, i64 0, i64 2
  %293 = load double, ptr %292, align 16
  %294 = load ptr, ptr %11, align 8
  %295 = getelementptr inbounds double, ptr %294, i64 2
  store double %293, ptr %295, align 8
  %296 = getelementptr inbounds [4 x double], ptr %13, i64 0, i64 3
  %297 = load double, ptr %296, align 8
  %298 = load ptr, ptr %11, align 8
  %299 = getelementptr inbounds double, ptr %298, i64 3
  store double %297, ptr %299, align 8
  br label %300

300:                                              ; preds = %283, %258
  br label %301

301:                                              ; preds = %300, %230
  %302 = load ptr, ptr %11, align 8
  %303 = getelementptr inbounds double, ptr %302, i64 4
  store ptr %303, ptr %11, align 8
  ret void
}